; Function Attrs: nounwind uwtable
define internal range(i32 0, 2) i32 @incrblobClose(ptr noundef %0, ptr noundef %1) #0 {
  %3 = getelementptr inbounds nuw i8, ptr %0, i64 8
  %4 = load ptr, ptr %3, align 8, !tbaa !199
  %5 = load ptr, ptr %4, align 8, !tbaa !26
  %6 = load ptr, ptr %0, align 8, !tbaa !189
  %7 = tail call i32 @sqlite3_blob_close(ptr noundef %6) #14
  %8 = getelementptr inbounds nuw i8, ptr %0, i64 40
  %9 = load ptr, ptr %8, align 8, !tbaa !197
  %.not23.i = icmp eq ptr %9, null
  %.phi.trans.insert.i = getelementptr inbounds nuw i8, ptr %0, i64 48
  %.pre.i = load ptr, ptr %.phi.trans.insert.i, align 8, !tbaa !198
  br i1 %.not23.i, label %._crit_edge.i, label %10

10:                                               ; preds = %2
  %11 = getelementptr inbounds nuw i8, ptr %9, i64 48
  store ptr %.pre.i, ptr %11, align 8, !tbaa !198
  br label %._crit_edge.i

._crit_edge.i:                                    ; preds = %10, %2
  %.not24.i = icmp eq ptr %.pre.i, null
  br i1 %.not24.i, label %14, label %12

12:                                               ; preds = %._crit_edge.i
  %13 = getelementptr inbounds nuw i8, ptr %.pre.i, i64 40
  store ptr %9, ptr %13, align 8, !tbaa !197
  br label %14

14:                                               ; preds = %12, %._crit_edge.i
  %15 = load ptr, ptr %3, align 8, !tbaa !199
  %16 = getelementptr inbounds nuw i8, ptr %15, i64 192
  %17 = load ptr, ptr %16, align 8, !tbaa !196
  %18 = icmp eq ptr %17, %0
  br i1 %18, label %19, label %21

19:                                               ; preds = %14
  %20 = load ptr, ptr %8, align 8, !tbaa !197
  store ptr %20, ptr %16, align 8, !tbaa !196
  br label %21

21:                                               ; preds = %19, %14
  %22 = load ptr, ptr @tclStubsPtr, align 8, !tbaa !3
  %23 = getelementptr inbounds nuw i8, ptr %22, i64 48
  %24 = load ptr, ptr %23, align 8, !tbaa !36
  tail call void %24(ptr noundef nonnull %0) #14
  %.not25.i = icmp eq i32 %7, 0
  br i1 %.not25.i, label %incrblobClose2.exit, label %25

25:                                               ; preds = %21
  %26 = load ptr, ptr @tclStubsPtr, align 8, !tbaa !3
  %27 = getelementptr inbounds nuw i8, ptr %26, i64 1872
  %28 = load ptr, ptr %27, align 8, !tbaa !35
  %29 = tail call ptr @sqlite3_errmsg(ptr noundef %5) #14
  tail call void %28(ptr noundef %1, ptr noundef %29, ptr noundef nonnull inttoptr (i64 1 to ptr)) #14
  br label %incrblobClose2.exit

incrblobClose2.exit:                              ; preds = %21, %25
  %.0.i = phi i32 [ 1, %25 ], [ 0, %21 ]
  ret i32 %.0.i
}